; Function Attrs: nounwind uwtable
define noalias nonnull ptr @l_Lean_mkIdentFromRef___at___private_Lake_CLI_Translate_Lean_0__Lake_genMkDeclFields___spec__1(ptr noundef %0, i8 noundef zeroext %1, ptr noundef readonly captures(none) %2, ptr noundef %3) local_unnamed_addr #0 {
  %5 = getelementptr inbounds nuw i8, ptr %2, i64 48
  %6 = load ptr, ptr %5, align 8, !tbaa !12
  %7 = tail call ptr @l_Lean_mkIdentFrom(ptr noundef %6, ptr noundef %0, i8 noundef zeroext %1) #6
  tail call void @lean_inc_heartbeat() #6
  %8 = tail call noalias ptr @mi_malloc_small(i64 noundef 24) #6
  %9 = icmp eq ptr %8, null
  br i1 %9, label %10, label %lean_alloc_ctor.exit

10:                                               ; preds = %4
  tail call void @lean_internal_panic_out_of_memory() #7
  unreachable

lean_alloc_ctor.exit:                             ; preds = %4
  %11 = getelementptr inbounds nuw i8, ptr %8, i64 4
  store i32 1, ptr %8, align 4, !tbaa !8
  store i32 131096, ptr %11, align 4
  %12 = getelementptr inbounds nuw i8, ptr %8, i64 8
  store ptr %7, ptr %12, align 8, !tbaa !12
  %13 = getelementptr inbounds nuw i8, ptr %8, i64 16
  store ptr %3, ptr %13, align 8, !tbaa !12
  ret ptr %8
}